target datalayout = "e-m:e-p270:32:32-p271:32:32-p272:64:64-i64:64-i128:128-f80:128-n8:16:32:64-S128"
target triple = "x86_64-pc-linux-gnu"

%struct.anon.12 = type { [65 x i32], i32 }

@signal_buff = internal global %struct.anon.12 zeroinitializer, align 4

; Function Attrs: inlinehint nounwind sspstrong memory(argmem: readwrite, inaccessiblemem: readwrite) uwtable
define internal void @rbimpl_atomic_add(ptr noundef nonnull %0, i32 noundef %1) #10 {
  %3 = alloca ptr, align 8
  %4 = alloca i32, align 4
  %5 = alloca i32, align 4
  %6 = alloca i32, align 4
  store ptr %0, ptr %3, align 8, !tbaa !49
  store i32 %1, ptr %4, align 4, !tbaa !7
  %7 = load ptr, ptr %3, align 8, !tbaa !49
  %8 = load i32, ptr %4, align 4, !tbaa !7
  store i32 %8, ptr %5, align 4, !tbaa !7
  %9 = load i32, ptr %5, align 4
  %10 = atomicrmw volatile add ptr %7, i32 %9 seq_cst, align 4
  %11 = add i32 %10, %9
  store i32 %11, ptr %6, align 4
  ret void
}

; Function Attrs: inlinehint nounwind sspstrong memory(argmem: readwrite, inaccessiblemem: readwrite) uwtable
define internal void @rbimpl_atomic_inc(ptr noundef nonnull %0) #10 {
  %2 = alloca ptr, align 8
  store ptr %0, ptr %2, align 8, !tbaa !49
  %3 = load ptr, ptr %2, align 8, !tbaa !49
  call void @rbimpl_atomic_add(ptr noundef %3, i32 noundef 1) #31
  ret void
}

; Function Attrs: nounwind sspstrong uwtable
define internal void @signal_enque(i32 noundef %0) #1 {
  %2 = alloca i32, align 4
  store i32 %0, ptr %2, align 4, !tbaa !7
  %3 = load i32, ptr %2, align 4, !tbaa !7
  %4 = sext i32 %3 to i64
  %5 = getelementptr [65 x i32], ptr @signal_buff, i64 0, i64 %4
  call void @rbimpl_atomic_inc(ptr noundef %5) #31
  call void @rbimpl_atomic_inc(ptr noundef getelementptr inbounds nuw (%struct.anon.12, ptr @signal_buff, i32 0, i32 1)) #31
  ret void
}

; Function Attrs: nounwind sspstrong uwtable
define internal void @sighandler(i32 noundef %0) #1 {
  %2 = alloca i32, align 4
  %3 = alloca i32, align 4
  store i32 %0, ptr %2, align 4, !tbaa !7
  call void @llvm.lifetime.start.p0(i64 4, ptr %3) #22
  %4 = call ptr @rb_errno_ptr()
  %5 = load i32, ptr %4, align 4, !tbaa !7
  store i32 %5, ptr %3, align 4, !tbaa !7
  %6 = load i32, ptr %2, align 4, !tbaa !7
  call void @signal_enque(i32 noundef %6)
  %7 = load i32, ptr %2, align 4, !tbaa !7
  call void @rb_thread_wakeup_timer_thread(i32 noundef %7)
  %8 = load i32, ptr %3, align 4, !tbaa !7
  %9 = call ptr @rb_errno_ptr()
  store i32 %8, ptr %9, align 4, !tbaa !7
  call void @llvm.lifetime.end.p0(i64 4, ptr %3) #22
  ret void
}