; Function Attrs: nounwind sspstrong uwtable
define internal void @sighandler(i32 noundef %0) #1 {
  %2 = tail call ptr @rb_errno_ptr() #17
  %3 = load i32, ptr %2, align 4, !tbaa !19
  %4 = sext i32 %0 to i64
  %5 = getelementptr [65 x i32], ptr @signal_buff, i64 0, i64 %4
  %6 = atomicrmw volatile add ptr %5, i32 1 seq_cst, align 4
  %7 = atomicrmw volatile add ptr getelementptr inbounds nuw (i8, ptr @signal_buff, i64 260), i32 1 seq_cst, align 4
  tail call void @rb_thread_wakeup_timer_thread(i32 noundef %0) #17
  %8 = tail call ptr @rb_errno_ptr() #17
  store i32 %3, ptr %8, align 4, !tbaa !19
  ret void
}